; Function Attrs: nounwind uwtable
define dso_local void @functionsLibCtxFree(ptr noundef %0) local_unnamed_addr #1 {
  tail call void @functionsLibCtxClear(ptr noundef %0)
  %2 = getelementptr inbounds nuw i8, ptr %0, i64 8
  %3 = load ptr, ptr %2, align 8, !tbaa !33
  tail call void @dictRelease(ptr noundef %3) #12
  %4 = load ptr, ptr %0, align 8, !tbaa !35
  tail call void @dictRelease(ptr noundef %4) #12
  %5 = getelementptr inbounds nuw i8, ptr %0, i64 24
  %6 = load ptr, ptr %5, align 8, !tbaa !36
  tail call void @dictRelease(ptr noundef %6) #12
  tail call void @zfree(ptr noundef nonnull %0) #12
  ret void
}